target datalayout = "e-m:e-p270:32:32-p271:32:32-p272:64:64-i64:64-i128:128-f80:128-n8:16:32:64-S128"
target triple = "x86_64-pc-linux-gnu"

%"class.absl::synchronization_internal::GraphCycles" = type { ptr }
%"struct.absl::synchronization_internal::GraphCycles::Rep" = type { %"class.absl::synchronization_internal::(anonymous namespace)::Vec", %"class.absl::synchronization_internal::(anonymous namespace)::Vec.0", %"class.absl::synchronization_internal::(anonymous namespace)::PointerMap", %"class.absl::synchronization_internal::(anonymous namespace)::Vec.0", %"class.absl::synchronization_internal::(anonymous namespace)::Vec.0", %"class.absl::synchronization_internal::(anonymous namespace)::Vec.0", %"class.absl::synchronization_internal::(anonymous namespace)::Vec.0", %"class.absl::synchronization_internal::(anonymous namespace)::Vec.0" }
%"class.absl::synchronization_internal::(anonymous namespace)::Vec" = type { ptr, [8 x ptr], i32, i32 }
%"class.absl::synchronization_internal::(anonymous namespace)::PointerMap" = type <{ ptr, %"struct.std::array", [4 x i8] }>
%"struct.std::array" = type { [262139 x i32] }
%"class.absl::synchronization_internal::(anonymous namespace)::Vec.0" = type { ptr, [8 x i32], i32, i32 }
%"struct.absl::synchronization_internal::(anonymous namespace)::Node" = type { i32, i32, i32, i8, i64, %"class.absl::synchronization_internal::(anonymous namespace)::NodeSet", %"class.absl::synchronization_internal::(anonymous namespace)::NodeSet", i32, i32, [40 x ptr] }
%"class.absl::synchronization_internal::(anonymous namespace)::NodeSet" = type <{ %"class.absl::synchronization_internal::(anonymous namespace)::Vec.0", i32, [4 x i8] }>
%"struct.absl::synchronization_internal::GraphId" = type { i64 }

; Function Attrs: mustprogress nounwind uwtable
define internal noundef i32 @_ZN4absl24synchronization_internal12_GLOBAL__N_17NodeSet4HashEi(i32 noundef %0) #2 align 2 {
  %2 = alloca i32, align 4
  store i32 %0, ptr %2, align 4, !tbaa !9
  %3 = load i32, ptr %2, align 4, !tbaa !9
  %4 = mul i32 %3, 41
  ret i32 %4
}

; Function Attrs: mustprogress nounwind uwtable
define internal noundef i32 @_ZNK4absl24synchronization_internal12_GLOBAL__N_13VecIiE4sizeEv(ptr noundef nonnull align 8 dereferenceable(48) %0) #2 align 2 {
  %2 = alloca ptr, align 8
  store ptr %0, ptr %2, align 8, !tbaa !63
  %3 = load ptr, ptr %2, align 8
  %4 = getelementptr inbounds nuw %"class.absl::synchronization_internal::(anonymous namespace)::Vec.0", ptr %3, i32 0, i32 2
  %5 = load i32, ptr %4, align 8, !tbaa !65
  ret i32 %5
}

; Function Attrs: mustprogress nounwind uwtable
define internal noundef nonnull align 4 dereferenceable(4) ptr @_ZNK4absl24synchronization_internal12_GLOBAL__N_13VecIiEixEj(ptr noundef nonnull align 8 dereferenceable(48) %0, i32 noundef %1) #2 align 2 {
  %3 = alloca ptr, align 8
  %4 = alloca i32, align 4
  store ptr %0, ptr %3, align 8, !tbaa !63
  store i32 %1, ptr %4, align 4, !tbaa !9
  %5 = load ptr, ptr %3, align 8
  %6 = getelementptr inbounds nuw %"class.absl::synchronization_internal::(anonymous namespace)::Vec.0", ptr %5, i32 0, i32 0
  %7 = load ptr, ptr %6, align 8, !tbaa !66
  %8 = load i32, ptr %4, align 4, !tbaa !9
  %9 = zext i32 %8 to i64
  %10 = getelementptr inbounds nuw i32, ptr %7, i64 %9
  ret ptr %10
}

; Function Attrs: mustprogress uwtable
define internal noundef i32 @_ZNK4absl24synchronization_internal12_GLOBAL__N_17NodeSet9FindIndexEi(ptr noundef nonnull align 8 dereferenceable(52) %0, i32 noundef %1) #0 align 2 {
  %3 = alloca i32, align 4
  %4 = alloca ptr, align 8
  %5 = alloca i32, align 4
  %6 = alloca i32, align 4
  %7 = alloca i32, align 4
  %8 = alloca i32, align 4
  %9 = alloca i8, align 1
  %10 = alloca i32, align 4
  %11 = alloca i32, align 4
  store ptr %0, ptr %4, align 8, !tbaa !45
  store i32 %1, ptr %5, align 4, !tbaa !9
  %12 = load ptr, ptr %4, align 8
  call void @llvm.lifetime.start.p0(i64 4, ptr %6) #12
  %13 = getelementptr inbounds nuw %"class.absl::synchronization_internal::(anonymous namespace)::NodeSet", ptr %12, i32 0, i32 0
  %14 = call noundef i32 @_ZNK4absl24synchronization_internal12_GLOBAL__N_13VecIiE4sizeEv(ptr noundef nonnull align 8 dereferenceable(48) %13)
  %15 = sub i32 %14, 1
  store i32 %15, ptr %6, align 4, !tbaa !9
  call void @llvm.lifetime.start.p0(i64 4, ptr %7) #12
  %16 = load i32, ptr %5, align 4, !tbaa !9
  %17 = call noundef i32 @_ZN4absl24synchronization_internal12_GLOBAL__N_17NodeSet4HashEi(i32 noundef %16)
  %18 = load i32, ptr %6, align 4, !tbaa !9
  %19 = and i32 %17, %18
  store i32 %19, ptr %7, align 4, !tbaa !9
  call void @llvm.lifetime.start.p0(i64 4, ptr %8) #12
  store i32 0, ptr %8, align 4, !tbaa !9
  call void @llvm.lifetime.start.p0(i64 1, ptr %9) #12
  store i8 0, ptr %9, align 1, !tbaa !89
  br label %20

20:                                               ; preds = %60, %2
  br label %21

21:                                               ; preds = %20
  call void @llvm.lifetime.start.p0(i64 4, ptr %10) #12
  %22 = getelementptr inbounds nuw %"class.absl::synchronization_internal::(anonymous namespace)::NodeSet", ptr %12, i32 0, i32 0
  %23 = load i32, ptr %7, align 4, !tbaa !9
  %24 = call noundef nonnull align 4 dereferenceable(4) ptr @_ZNK4absl24synchronization_internal12_GLOBAL__N_13VecIiEixEj(ptr noundef nonnull align 8 dereferenceable(48) %22, i32 noundef %23)
  %25 = load i32, ptr %24, align 4, !tbaa !9
  store i32 %25, ptr %10, align 4, !tbaa !9
  %26 = load i32, ptr %5, align 4, !tbaa !9
  %27 = load i32, ptr %10, align 4, !tbaa !9
  %28 = icmp eq i32 %26, %27
  br i1 %28, label %29, label %31

29:                                               ; preds = %21
  %30 = load i32, ptr %7, align 4, !tbaa !9
  store i32 %30, ptr %3, align 4
  store i32 1, ptr %11, align 4
  br label %58

31:                                               ; preds = %21
  %32 = load i32, ptr %10, align 4, !tbaa !9
  %33 = icmp eq i32 %32, -1
  br i1 %33, label %34, label %43

34:                                               ; preds = %31
  %35 = load i8, ptr %9, align 1, !tbaa !89, !range !40, !noundef !41
  %36 = trunc i8 %35 to i1
  br i1 %36, label %37, label %39

37:                                               ; preds = %34
  %38 = load i32, ptr %8, align 4, !tbaa !9
  br label %41

39:                                               ; preds = %34
  %40 = load i32, ptr %7, align 4, !tbaa !9
  br label %41

41:                                               ; preds = %39, %37
  %42 = phi i32 [ %38, %37 ], [ %40, %39 ]
  store i32 %42, ptr %3, align 4
  store i32 1, ptr %11, align 4
  br label %58

43:                                               ; preds = %31
  %44 = load i32, ptr %10, align 4, !tbaa !9
  %45 = icmp eq i32 %44, -2
  br i1 %45, label %46, label %51

46:                                               ; preds = %43
  %47 = load i8, ptr %9, align 1, !tbaa !89, !range !40, !noundef !41
  %48 = trunc i8 %47 to i1
  br i1 %48, label %51, label %49

49:                                               ; preds = %46
  %50 = load i32, ptr %7, align 4, !tbaa !9
  store i32 %50, ptr %8, align 4, !tbaa !9
  store i8 1, ptr %9, align 1, !tbaa !89
  br label %51

51:                                               ; preds = %49, %46, %43
  br label %52

52:                                               ; preds = %51
  br label %53

53:                                               ; preds = %52
  %54 = load i32, ptr %7, align 4, !tbaa !9
  %55 = add i32 %54, 1
  %56 = load i32, ptr %6, align 4, !tbaa !9
  %57 = and i32 %55, %56
  store i32 %57, ptr %7, align 4, !tbaa !9
  store i32 0, ptr %11, align 4
  br label %58

58:                                               ; preds = %53, %41, %29
  call void @llvm.lifetime.end.p0(i64 4, ptr %10) #12
  %59 = load i32, ptr %11, align 4
  switch i32 %59, label %61 [
    i32 0, label %60
  ]

60:                                               ; preds = %58
  br label %20, !llvm.loop !97

61:                                               ; preds = %58
  call void @llvm.lifetime.end.p0(i64 1, ptr %9) #12
  call void @llvm.lifetime.end.p0(i64 4, ptr %8) #12
  call void @llvm.lifetime.end.p0(i64 4, ptr %7) #12
  call void @llvm.lifetime.end.p0(i64 4, ptr %6) #12
  %62 = load i32, ptr %3, align 4
  ret i32 %62
}

; Function Attrs: inlinehint mustprogress nounwind uwtable
define internal noundef i32 @_ZN4absl24synchronization_internal12_GLOBAL__N_111NodeVersionENS0_7GraphIdE(i64 %0) #5 {
  %2 = alloca %"struct.absl::synchronization_internal::GraphId", align 8
  %3 = getelementptr inbounds nuw %"struct.absl::synchronization_internal::GraphId", ptr %2, i32 0, i32 0
  store i64 %0, ptr %3, align 8
  %4 = getelementptr inbounds nuw %"struct.absl::synchronization_internal::GraphId", ptr %2, i32 0, i32 0
  %5 = load i64, ptr %4, align 8, !tbaa !61
  %6 = lshr i64 %5, 32
  %7 = trunc i64 %6 to i32
  ret i32 %7
}

; Function Attrs: mustprogress nounwind uwtable
define internal noundef nonnull align 8 dereferenceable(8) ptr @_ZN4absl24synchronization_internal12_GLOBAL__N_13VecIPNS1_4NodeEEixEj(ptr noundef nonnull align 8 dereferenceable(80) %0, i32 noundef %1) #2 align 2 {
  %3 = alloca ptr, align 8
  %4 = alloca i32, align 4
  store ptr %0, ptr %3, align 8, !tbaa !18
  store i32 %1, ptr %4, align 4, !tbaa !9
  %5 = load ptr, ptr %3, align 8
  %6 = getelementptr inbounds nuw %"class.absl::synchronization_internal::(anonymous namespace)::Vec", ptr %5, i32 0, i32 0
  %7 = load ptr, ptr %6, align 8, !tbaa !24
  %8 = load i32, ptr %4, align 4, !tbaa !9
  %9 = zext i32 %8 to i64
  %10 = getelementptr inbounds nuw ptr, ptr %7, i64 %9
  ret ptr %10
}

; Function Attrs: mustprogress uwtable
define internal noundef zeroext i1 @_ZNK4absl24synchronization_internal12_GLOBAL__N_17NodeSet8containsEi(ptr noundef nonnull align 8 dereferenceable(52) %0, i32 noundef %1) #0 align 2 {
  %3 = alloca ptr, align 8
  %4 = alloca i32, align 4
  store ptr %0, ptr %3, align 8, !tbaa !45
  store i32 %1, ptr %4, align 4, !tbaa !9
  %5 = load ptr, ptr %3, align 8
  %6 = getelementptr inbounds nuw %"class.absl::synchronization_internal::(anonymous namespace)::NodeSet", ptr %5, i32 0, i32 0
  %7 = load i32, ptr %4, align 4, !tbaa !9
  %8 = call noundef i32 @_ZNK4absl24synchronization_internal12_GLOBAL__N_17NodeSet9FindIndexEi(ptr noundef nonnull align 8 dereferenceable(52) %5, i32 noundef %7)
  %9 = call noundef nonnull align 4 dereferenceable(4) ptr @_ZNK4absl24synchronization_internal12_GLOBAL__N_13VecIiEixEj(ptr noundef nonnull align 8 dereferenceable(48) %6, i32 noundef %8)
  %10 = load i32, ptr %9, align 4, !tbaa !9
  %11 = load i32, ptr %4, align 4, !tbaa !9
  %12 = icmp eq i32 %10, %11
  ret i1 %12
}

; Function Attrs: inlinehint mustprogress nounwind uwtable
define internal noundef i32 @_ZN4absl24synchronization_internal12_GLOBAL__N_19NodeIndexENS0_7GraphIdE(i64 %0) #5 {
  %2 = alloca %"struct.absl::synchronization_internal::GraphId", align 8
  %3 = getelementptr inbounds nuw %"struct.absl::synchronization_internal::GraphId", ptr %2, i32 0, i32 0
  store i64 %0, ptr %3, align 8
  %4 = getelementptr inbounds nuw %"struct.absl::synchronization_internal::GraphId", ptr %2, i32 0, i32 0
  %5 = load i64, ptr %4, align 8, !tbaa !61
  %6 = trunc i64 %5 to i32
  ret i32 %6
}

; Function Attrs: mustprogress uwtable
define internal noundef ptr @_ZN4absl24synchronization_internalL8FindNodeEPNS0_11GraphCycles3RepENS0_7GraphIdE(ptr noundef %0, i64 %1) #0 {
  %3 = alloca %"struct.absl::synchronization_internal::GraphId", align 8
  %4 = alloca ptr, align 8
  %5 = alloca ptr, align 8
  %6 = alloca %"struct.absl::synchronization_internal::GraphId", align 8
  %7 = alloca %"struct.absl::synchronization_internal::GraphId", align 8
  %8 = getelementptr inbounds nuw %"struct.absl::synchronization_internal::GraphId", ptr %3, i32 0, i32 0
  store i64 %1, ptr %8, align 8
  store ptr %0, ptr %4, align 8, !tbaa !27
  call void @llvm.lifetime.start.p0(i64 8, ptr %5) #12
  %9 = load ptr, ptr %4, align 8, !tbaa !27
  %10 = getelementptr inbounds nuw %"struct.absl::synchronization_internal::GraphCycles::Rep", ptr %9, i32 0, i32 0
  call void @llvm.memcpy.p0.p0.i64(ptr align 8 %6, ptr align 8 %3, i64 8, i1 false), !tbaa.struct !71
  %11 = getelementptr inbounds nuw %"struct.absl::synchronization_internal::GraphId", ptr %6, i32 0, i32 0
  %12 = load i64, ptr %11, align 8
  %13 = call noundef i32 @_ZN4absl24synchronization_internal12_GLOBAL__N_19NodeIndexENS0_7GraphIdE(i64 %12)
  %14 = call noundef nonnull align 8 dereferenceable(8) ptr @_ZN4absl24synchronization_internal12_GLOBAL__N_13VecIPNS1_4NodeEEixEj(ptr noundef nonnull align 8 dereferenceable(80) %10, i32 noundef %13)
  %15 = load ptr, ptr %14, align 8, !tbaa !14
  store ptr %15, ptr %5, align 8, !tbaa !14
  %16 = load ptr, ptr %5, align 8, !tbaa !14
  %17 = getelementptr inbounds nuw %"struct.absl::synchronization_internal::(anonymous namespace)::Node", ptr %16, i32 0, i32 1
  %18 = load i32, ptr %17, align 4, !tbaa !58
  call void @llvm.memcpy.p0.p0.i64(ptr align 8 %7, ptr align 8 %3, i64 8, i1 false), !tbaa.struct !71
  %19 = getelementptr inbounds nuw %"struct.absl::synchronization_internal::GraphId", ptr %7, i32 0, i32 0
  %20 = load i64, ptr %19, align 8
  %21 = call noundef i32 @_ZN4absl24synchronization_internal12_GLOBAL__N_111NodeVersionENS0_7GraphIdE(i64 %20)
  %22 = icmp eq i32 %18, %21
  br i1 %22, label %23, label %25

23:                                               ; preds = %2
  %24 = load ptr, ptr %5, align 8, !tbaa !14
  br label %26

25:                                               ; preds = %2
  br label %26

26:                                               ; preds = %25, %23
  %27 = phi ptr [ %24, %23 ], [ null, %25 ]
  call void @llvm.lifetime.end.p0(i64 8, ptr %5) #12
  ret ptr %27
}

; Function Attrs: mustprogress uwtable
define dso_local noundef zeroext i1 @_ZNK4absl24synchronization_internal11GraphCycles7HasEdgeENS0_7GraphIdES2_(ptr noundef nonnull align 8 dereferenceable(8) %0, i64 %1, i64 %2) #0 align 2 {
  %4 = alloca %"struct.absl::synchronization_internal::GraphId", align 8
  %5 = alloca %"struct.absl::synchronization_internal::GraphId", align 8
  %6 = alloca ptr, align 8
  %7 = alloca ptr, align 8
  %8 = alloca %"struct.absl::synchronization_internal::GraphId", align 8
  %9 = alloca %"struct.absl::synchronization_internal::GraphId", align 8
  %10 = alloca %"struct.absl::synchronization_internal::GraphId", align 8
  %11 = getelementptr inbounds nuw %"struct.absl::synchronization_internal::GraphId", ptr %4, i32 0, i32 0
  store i64 %1, ptr %11, align 8
  %12 = getelementptr inbounds nuw %"struct.absl::synchronization_internal::GraphId", ptr %5, i32 0, i32 0
  store i64 %2, ptr %12, align 8
  store ptr %0, ptr %6, align 8, !tbaa !4
  %13 = load ptr, ptr %6, align 8
  call void @llvm.lifetime.start.p0(i64 8, ptr %7) #12
  %14 = getelementptr inbounds nuw %"class.absl::synchronization_internal::GraphCycles", ptr %13, i32 0, i32 0
  %15 = load ptr, ptr %14, align 8, !tbaa !11
  call void @llvm.memcpy.p0.p0.i64(ptr align 8 %8, ptr align 8 %4, i64 8, i1 false), !tbaa.struct !71
  %16 = getelementptr inbounds nuw %"struct.absl::synchronization_internal::GraphId", ptr %8, i32 0, i32 0
  %17 = load i64, ptr %16, align 8
  %18 = call noundef ptr @_ZN4absl24synchronization_internalL8FindNodeEPNS0_11GraphCycles3RepENS0_7GraphIdE(ptr noundef %15, i64 %17)
  store ptr %18, ptr %7, align 8, !tbaa !14
  %19 = load ptr, ptr %7, align 8, !tbaa !14
  %20 = icmp ne ptr %19, null
  br i1 %20, label %21, label %35

21:                                               ; preds = %3
  %22 = getelementptr inbounds nuw %"class.absl::synchronization_internal::GraphCycles", ptr %13, i32 0, i32 0
  %23 = load ptr, ptr %22, align 8, !tbaa !11
  call void @llvm.memcpy.p0.p0.i64(ptr align 8 %9, ptr align 8 %5, i64 8, i1 false), !tbaa.struct !71
  %24 = getelementptr inbounds nuw %"struct.absl::synchronization_internal::GraphId", ptr %9, i32 0, i32 0
  %25 = load i64, ptr %24, align 8
  %26 = call noundef ptr @_ZN4absl24synchronization_internalL8FindNodeEPNS0_11GraphCycles3RepENS0_7GraphIdE(ptr noundef %23, i64 %25)
  %27 = icmp ne ptr %26, null
  br i1 %27, label %28, label %35

28:                                               ; preds = %21
  %29 = load ptr, ptr %7, align 8, !tbaa !14
  %30 = getelementptr inbounds nuw %"struct.absl::synchronization_internal::(anonymous namespace)::Node", ptr %29, i32 0, i32 6
  call void @llvm.memcpy.p0.p0.i64(ptr align 8 %10, ptr align 8 %5, i64 8, i1 false), !tbaa.struct !71
  %31 = getelementptr inbounds nuw %"struct.absl::synchronization_internal::GraphId", ptr %10, i32 0, i32 0
  %32 = load i64, ptr %31, align 8
  %33 = call noundef i32 @_ZN4absl24synchronization_internal12_GLOBAL__N_19NodeIndexENS0_7GraphIdE(i64 %32)
  %34 = call noundef zeroext i1 @_ZNK4absl24synchronization_internal12_GLOBAL__N_17NodeSet8containsEi(ptr noundef nonnull align 8 dereferenceable(52) %30, i32 noundef %33)
  br label %35

35:                                               ; preds = %28, %21, %3
  %36 = phi i1 [ false, %21 ], [ false, %3 ], [ %34, %28 ]
  call void @llvm.lifetime.end.p0(i64 8, ptr %7) #12
  ret i1 %36
}