; Function Attrs: mustprogress nofree norecurse nosync nounwind willreturn memory(read, inaccessiblemem: none) uwtable
define dso_local noundef zeroext i1 @_ZNK4absl24synchronization_internal11GraphCycles7HasEdgeENS0_7GraphIdES2_(ptr noundef nonnull readonly align 8 captures(none) dereferenceable(8) %0, i64 %1, i64 %2) local_unnamed_addr #7 align 2 {
  %4 = load ptr, ptr %0, align 8, !tbaa !4
  %.val9 = load ptr, ptr %4, align 8, !tbaa !19
  %5 = and i64 %1, 4294967295
  %6 = getelementptr inbounds nuw ptr, ptr %.val9, i64 %5
  %7 = load ptr, ptr %6, align 8, !tbaa !20
  %8 = getelementptr inbounds nuw i8, ptr %7, i64 4
  %9 = load i32, ptr %8, align 4, !tbaa !47
  %10 = lshr i64 %1, 32
  %11 = trunc nuw i64 %10 to i32
  %12 = icmp ne i32 %9, %11
  %.not12 = icmp eq ptr %7, null
  %.not = or i1 %.not12, %12
  br i1 %.not, label %46, label %13

13:                                               ; preds = %3
  %14 = and i64 %2, 4294967295
  %15 = getelementptr inbounds nuw ptr, ptr %.val9, i64 %14
  %16 = load ptr, ptr %15, align 8, !tbaa !20
  %17 = getelementptr inbounds nuw i8, ptr %16, i64 4
  %18 = load i32, ptr %17, align 4, !tbaa !47
  %19 = lshr i64 %2, 32
  %20 = trunc nuw i64 %19 to i32
  %21 = icmp ne i32 %18, %20
  %.not813 = icmp eq ptr %16, null
  %.not8 = or i1 %.not813, %21
  br i1 %.not8, label %46, label %22

22:                                               ; preds = %13
  %23 = getelementptr inbounds nuw i8, ptr %7, i64 80
  %24 = trunc i64 %2 to i32
  %.val10 = load ptr, ptr %23, align 8
  %25 = getelementptr i8, ptr %7, i64 120
  %.val11 = load i32, ptr %25, align 8, !tbaa !25
  %26 = add i32 %.val11, -1
  %27 = mul i32 %24, 41
  %.02310.i.i = and i32 %26, %27
  %28 = zext i32 %.02310.i.i to i64
  %29 = getelementptr inbounds nuw i32, ptr %.val10, i64 %28
  %30 = load i32, ptr %29, align 4, !tbaa !31
  %31 = icmp eq i32 %30, %24
  br i1 %31, label %_ZNK4absl24synchronization_internal12_GLOBAL__N_17NodeSet8containsEi.exit, label %.lr.ph.i.i

.lr.ph.i.i:                                       ; preds = %22, %38
  %32 = phi i32 [ %42, %38 ], [ %30, %22 ]
  %.02313.i.i = phi i32 [ %.023.i.i, %38 ], [ %.02310.i.i, %22 ]
  %.01812.i.i = phi i8 [ %.2.i.i, %38 ], [ 0, %22 ]
  %.02011.i.i = phi i32 [ %.222.i.i, %38 ], [ 0, %22 ]
  switch i32 %32, label %38 [
    i32 -1, label %33
    i32 -2, label %36
  ]

33:                                               ; preds = %.lr.ph.i.i
  %34 = trunc nuw i8 %.01812.i.i to i1
  %35 = select i1 %34, i32 %.02011.i.i, i32 %.02313.i.i
  %.pre.i = zext i32 %35 to i64
  %.phi.trans.insert.i = getelementptr inbounds nuw i32, ptr %.val10, i64 %.pre.i
  %.pre7.i = load i32, ptr %.phi.trans.insert.i, align 4, !tbaa !31
  br label %_ZNK4absl24synchronization_internal12_GLOBAL__N_17NodeSet8containsEi.exit

36:                                               ; preds = %.lr.ph.i.i
  %37 = trunc nuw i8 %.01812.i.i to i1
  %spec.select.i.i = select i1 %37, i32 %.02011.i.i, i32 %.02313.i.i
  br label %38

38:                                               ; preds = %36, %.lr.ph.i.i
  %.222.i.i = phi i32 [ %.02011.i.i, %.lr.ph.i.i ], [ %spec.select.i.i, %36 ]
  %.2.i.i = phi i8 [ %.01812.i.i, %.lr.ph.i.i ], [ 1, %36 ]
  %39 = add i32 %.02313.i.i, 1
  %.023.i.i = and i32 %39, %26
  %40 = zext i32 %.023.i.i to i64
  %41 = getelementptr inbounds nuw i32, ptr %.val10, i64 %40
  %42 = load i32, ptr %41, align 4, !tbaa !31
  %43 = icmp eq i32 %42, %24
  br i1 %43, label %_ZNK4absl24synchronization_internal12_GLOBAL__N_17NodeSet8containsEi.exit, label %.lr.ph.i.i, !llvm.loop !45

_ZNK4absl24synchronization_internal12_GLOBAL__N_17NodeSet8containsEi.exit: ; preds = %38, %22, %33
  %44 = phi i32 [ %24, %22 ], [ %.pre7.i, %33 ], [ %24, %38 ]
  %45 = icmp eq i32 %44, %24
  br label %46

46:                                               ; preds = %_ZNK4absl24synchronization_internal12_GLOBAL__N_17NodeSet8containsEi.exit, %13, %3
  %47 = phi i1 [ false, %13 ], [ false, %3 ], [ %45, %_ZNK4absl24synchronization_internal12_GLOBAL__N_17NodeSet8containsEi.exit ]
  ret i1 %47
}